; Function Attrs: nounwind uwtable
define internal noundef i32 @jpegxl_anim_close(ptr noundef readonly captures(none) %0) #0 {
  %2 = getelementptr inbounds nuw i8, ptr %0, i64 24
  %3 = load ptr, ptr %2, align 8, !tbaa !14
  %4 = load ptr, ptr %3, align 8, !tbaa !30
  %.not = icmp eq ptr %4, null
  br i1 %.not, label %6, label %5

5:                                                ; preds = %1
  tail call void @av_buffer_unref(ptr noundef nonnull %3) #6
  br label %6

6:                                                ; preds = %5, %1
  ret i32 0
}